; ModuleID = '52/6106.c'
source_filename = "52/6106.c"
target datalayout = "e-m:e-p270:32:32-p271:32:32-p272:64:64-i64:64-f80:128-n8:16:32:64-S128"
target triple = "x86_64-pc-linux-gnu"

@.str = private unnamed_addr constant [3 x i8] c"%d\00", align 1
@.str.1 = private unnamed_addr constant [4 x i8] c"%d \00", align 1
@.str.2 = private unnamed_addr constant [4 x i8] c"%d\0A\00", align 1

; Function Attrs: noinline nounwind uwtable
define dso_local i32 @main() #0 {
  %1 = alloca i32, align 4
  %2 = alloca i32, align 4
  %3 = alloca i32, align 4
  %4 = alloca [120 x i32], align 16
  %5 = alloca i32, align 4
  %6 = alloca i32, align 4
  %7 = alloca i32, align 4
  %8 = alloca i32, align 4
  %9 = alloca i32, align 4
  store i32 0, i32* %1, align 4
  %10 = call i32 (i8*, ...) @__isoc99_scanf(i8* getelementptr inbounds ([3 x i8], [3 x i8]* @.str, i64 0, i64 0), i32* %2)
  %11 = call i32 (i8*, ...) @__isoc99_scanf(i8* getelementptr inbounds ([3 x i8], [3 x i8]* @.str, i64 0, i64 0), i32* %3)
  store i32 0, i32* %5, align 4
  br label %12

12:                                               ; preds = %21, %0
  %13 = load i32, i32* %5, align 4
  %14 = load i32, i32* %2, align 4
  %15 = icmp slt i32 %13, %14
  br i1 %15, label %16, label %24

16:                                               ; preds = %12
  %17 = load i32, i32* %5, align 4
  %18 = sext i32 %17 to i64
  %19 = getelementptr inbounds [120 x i32], [120 x i32]* %4, i64 0, i64 %18
  %20 = call i32 (i8*, ...) @__isoc99_scanf(i8* getelementptr inbounds ([3 x i8], [3 x i8]* @.str, i64 0, i64 0), i32* %19)
  br label %21

21:                                               ; preds = %16
  %22 = load i32, i32* %5, align 4
  %23 = add nsw i32 %22, 1
  store i32 %23, i32* %5, align 4
  br label %12

24:                                               ; preds = %12
  %25 = load i32, i32* %2, align 4
  %26 = add nsw i32 1, %25
  %27 = sdiv i32 %26, 2
  store i32 %27, i32* %7, align 4
  store i32 0, i32* %5, align 4
  br label %28

28:                                               ; preds = %54, %24
  %29 = load i32, i32* %5, align 4
  %30 = load i32, i32* %7, align 4
  %31 = icmp slt i32 %29, %30
  br i1 %31, label %32, label %57

32:                                               ; preds = %28
  %33 = load i32, i32* %2, align 4
  %34 = sub nsw i32 %33, 1
  %35 = load i32, i32* %5, align 4
  %36 = sub nsw i32 %34, %35
  %37 = sext i32 %36 to i64
  %38 = getelementptr inbounds [120 x i32], [120 x i32]* %4, i64 0, i64 %37
  %39 = load i32, i32* %38, align 4
  store i32 %39, i32* %6, align 4
  %40 = load i32, i32* %5, align 4
  %41 = sext i32 %40 to i64
  %42 = getelementptr inbounds [120 x i32], [120 x i32]* %4, i64 0, i64 %41
  %43 = load i32, i32* %42, align 4
  %44 = load i32, i32* %2, align 4
  %45 = sub nsw i32 %44, 1
  %46 = load i32, i32* %5, align 4
  %47 = sub nsw i32 %45, %46
  %48 = sext i32 %47 to i64
  %49 = getelementptr inbounds [120 x i32], [120 x i32]* %4, i64 0, i64 %48
  store i32 %43, i32* %49, align 4
  %50 = load i32, i32* %6, align 4
  %51 = load i32, i32* %5, align 4
  %52 = sext i32 %51 to i64
  %53 = getelementptr inbounds [120 x i32], [120 x i32]* %4, i64 0, i64 %52
  store i32 %50, i32* %53, align 4
  br label %54

54:                                               ; preds = %32
  %55 = load i32, i32* %5, align 4
  %56 = add nsw i32 %55, 1
  store i32 %56, i32* %5, align 4
  br label %28

57:                                               ; preds = %28
  %58 = load i32, i32* %3, align 4
  %59 = add nsw i32 1, %58
  %60 = sdiv i32 %59, 2
  store i32 %60, i32* %8, align 4
  store i32 0, i32* %5, align 4
  br label %61

61:                                               ; preds = %87, %57
  %62 = load i32, i32* %5, align 4
  %63 = load i32, i32* %8, align 4
  %64 = icmp slt i32 %62, %63
  br i1 %64, label %65, label %90

65:                                               ; preds = %61
  %66 = load i32, i32* %3, align 4
  %67 = sub nsw i32 %66, 1
  %68 = load i32, i32* %5, align 4
  %69 = sub nsw i32 %67, %68
  %70 = sext i32 %69 to i64
  %71 = getelementptr inbounds [120 x i32], [120 x i32]* %4, i64 0, i64 %70
  %72 = load i32, i32* %71, align 4
  store i32 %72, i32* %6, align 4
  %73 = load i32, i32* %5, align 4
  %74 = sext i32 %73 to i64
  %75 = getelementptr inbounds [120 x i32], [120 x i32]* %4, i64 0, i64 %74
  %76 = load i32, i32* %75, align 4
  %77 = load i32, i32* %3, align 4
  %78 = sub nsw i32 %77, 1
  %79 = load i32, i32* %5, align 4
  %80 = sub nsw i32 %78, %79
  %81 = sext i32 %80 to i64
  %82 = getelementptr inbounds [120 x i32], [120 x i32]* %4, i64 0, i64 %81
  store i32 %76, i32* %82, align 4
  %83 = load i32, i32* %6, align 4
  %84 = load i32, i32* %5, align 4
  %85 = sext i32 %84 to i64
  %86 = getelementptr inbounds [120 x i32], [120 x i32]* %4, i64 0, i64 %85
  store i32 %83, i32* %86, align 4
  br label %87

87:                                               ; preds = %65
  %88 = load i32, i32* %5, align 4
  %89 = add nsw i32 %88, 1
  store i32 %89, i32* %5, align 4
  br label %61

90:                                               ; preds = %61
  %91 = load i32, i32* %3, align 4
  %92 = load i32, i32* %2, align 4
  %93 = add nsw i32 1, %92
  %94 = load i32, i32* %3, align 4
  %95 = sub nsw i32 %93, %94
  %96 = sdiv i32 %95, 2
  %97 = add nsw i32 %91, %96
  store i32 %97, i32* %9, align 4
  %98 = load i32, i32* %3, align 4
  store i32 %98, i32* %5, align 4
  br label %99

99:                                               ; preds = %129, %90
  %100 = load i32, i32* %5, align 4
  %101 = load i32, i32* %9, align 4
  %102 = icmp slt i32 %100, %101
  br i1 %102, label %103, label %132

103:                                              ; preds = %99
  %104 = load i32, i32* %2, align 4
  %105 = sub nsw i32 %104, 1
  %106 = load i32, i32* %5, align 4
  %107 = sub nsw i32 %105, %106
  %108 = load i32, i32* %3, align 4
  %109 = add nsw i32 %107, %108
  %110 = sext i32 %109 to i64
  %111 = getelementptr inbounds [120 x i32], [120 x i32]* %4, i64 0, i64 %110
  %112 = load i32, i32* %111, align 4
  store i32 %112, i32* %6, align 4
  %113 = load i32, i32* %5, align 4
  %114 = sext i32 %113 to i64
  %115 = getelementptr inbounds [120 x i32], [120 x i32]* %4, i64 0, i64 %114
  %116 = load i32, i32* %115, align 4
  %117 = load i32, i32* %2, align 4
  %118 = sub nsw i32 %117, 1
  %119 = load i32, i32* %5, align 4
  %120 = sub nsw i32 %118, %119
  %121 = load i32, i32* %3, align 4
  %122 = add nsw i32 %120, %121
  %123 = sext i32 %122 to i64
  %124 = getelementptr inbounds [120 x i32], [120 x i32]* %4, i64 0, i64 %123
  store i32 %116, i32* %124, align 4
  %125 = load i32, i32* %6, align 4
  %126 = load i32, i32* %5, align 4
  %127 = sext i32 %126 to i64
  %128 = getelementptr inbounds [120 x i32], [120 x i32]* %4, i64 0, i64 %127
  store i32 %125, i32* %128, align 4
  br label %129

129:                                              ; preds = %103
  %130 = load i32, i32* %5, align 4
  %131 = add nsw i32 %130, 1
  store i32 %131, i32* %5, align 4
  br label %99

132:                                              ; preds = %99
  store i32 0, i32* %5, align 4
  br label %133

133:                                              ; preds = %144, %132
  %134 = load i32, i32* %5, align 4
  %135 = load i32, i32* %2, align 4
  %136 = sub nsw i32 %135, 1
  %137 = icmp slt i32 %134, %136
  br i1 %137, label %138, label %147

138:                                              ; preds = %133
  %139 = load i32, i32* %5, align 4
  %140 = sext i32 %139 to i64
  %141 = getelementptr inbounds [120 x i32], [120 x i32]* %4, i64 0, i64 %140
  %142 = load i32, i32* %141, align 4
  %143 = call i32 (i8*, ...) @printf(i8* getelementptr inbounds ([4 x i8], [4 x i8]* @.str.1, i64 0, i64 0), i32 %142)
  br label %144

144:                                              ; preds = %138
  %145 = load i32, i32* %5, align 4
  %146 = add nsw i32 %145, 1
  store i32 %146, i32* %5, align 4
  br label %133

147:                                              ; preds = %133
  %148 = load i32, i32* %2, align 4
  %149 = sub nsw i32 %148, 1
  %150 = sext i32 %149 to i64
  %151 = getelementptr inbounds [120 x i32], [120 x i32]* %4, i64 0, i64 %150
  %152 = load i32, i32* %151, align 4
  %153 = call i32 (i8*, ...) @printf(i8* getelementptr inbounds ([4 x i8], [4 x i8]* @.str.2, i64 0, i64 0), i32 %152)
  ret i32 0
}

declare dso_local i32 @__isoc99_scanf(i8*, ...) #1

declare dso_local i32 @printf(i8*, ...) #1


!llvm.module.flags = !{!0}
!llvm.ident = !{!1}

!0 = !{i32 1, !"wchar_size", i32 4}
!1 = !{!"clang version 10.0.0-4ubuntu1 "}
